target datalayout = "e-m:e-p270:32:32-p271:32:32-p272:64:64-i64:64-i128:128-f80:128-n8:16:32:64-S128"
target triple = "x86_64-pc-linux-gnu"

@stderr = external global ptr, align 8
@.str.64 = private unnamed_addr constant [64 x i8] c"Warning: nr of slices very small. This will resultin nonsense.\0A\00", align 1
@.str.65 = private unnamed_addr constant [39 x i8] c"Integrating from slice %d to slice %d\0A\00", align 1

; Function Attrs: mustprogress nounwind uwtable
define internal void @_ZL11p_integratePdPKdidii(ptr noundef %0, ptr noundef %1, i32 noundef %2, double noundef %3, i32 noundef %4, i32 noundef %5) #4 {
  %7 = alloca ptr, align 8
  %8 = alloca ptr, align 8
  %9 = alloca i32, align 4
  %10 = alloca double, align 8
  %11 = alloca i32, align 4
  %12 = alloca i32, align 4
  %13 = alloca i32, align 4
  %14 = alloca i32, align 4
  %15 = alloca double, align 8
  store ptr %0, ptr %7, align 8, !tbaa !72
  store ptr %1, ptr %8, align 8, !tbaa !72
  store i32 %2, ptr %9, align 4, !tbaa !4
  store double %3, ptr %10, align 8, !tbaa !53
  store i32 %4, ptr %11, align 4, !tbaa !4
  store i32 %5, ptr %12, align 4, !tbaa !4
  call void @llvm.lifetime.start.p0(i64 4, ptr %13) #17
  call void @llvm.lifetime.start.p0(i64 4, ptr %14) #17
  call void @llvm.lifetime.start.p0(i64 8, ptr %15) #17
  %16 = load i32, ptr %9, align 4, !tbaa !4
  %17 = icmp sle i32 %16, 2
  br i1 %17, label %18, label %21

18:                                               ; preds = %6
  %19 = load ptr, ptr @stderr, align 8, !tbaa !34
  %20 = call i32 (ptr, ptr, ...) @fprintf(ptr noundef %19, ptr noundef @.str.64) #17
  br label %21

21:                                               ; preds = %18, %6
  %22 = load ptr, ptr @stderr, align 8, !tbaa !34
  %23 = load i32, ptr %11, align 4, !tbaa !4
  %24 = load i32, ptr %9, align 4, !tbaa !4
  %25 = load i32, ptr %12, align 4, !tbaa !4
  %26 = sub nsw i32 %24, %25
  %27 = call i32 (ptr, ptr, ...) @fprintf(ptr noundef %22, ptr noundef @.str.65, i32 noundef %23, i32 noundef %26) #17
  %28 = load i32, ptr %11, align 4, !tbaa !4
  store i32 %28, ptr %14, align 4, !tbaa !4
  br label %29

29:                                               ; preds = %72, %21
  %30 = load i32, ptr %14, align 4, !tbaa !4
  %31 = load i32, ptr %9, align 4, !tbaa !4
  %32 = load i32, ptr %12, align 4, !tbaa !4
  %33 = sub nsw i32 %31, %32
  %34 = icmp slt i32 %30, %33
  br i1 %34, label %35, label %75

35:                                               ; preds = %29
  store double 0.000000e+00, ptr %15, align 8, !tbaa !53
  %36 = load i32, ptr %11, align 4, !tbaa !4
  store i32 %36, ptr %13, align 4, !tbaa !4
  br label %37

37:                                               ; preds = %63, %35
  %38 = load i32, ptr %13, align 4, !tbaa !4
  %39 = load i32, ptr %14, align 4, !tbaa !4
  %40 = icmp slt i32 %38, %39
  br i1 %40, label %41, label %66

41:                                               ; preds = %37
  %42 = load double, ptr %10, align 8, !tbaa !53
  %43 = load ptr, ptr %8, align 8, !tbaa !72
  %44 = load i32, ptr %13, align 4, !tbaa !4
  %45 = sext i32 %44 to i64
  %46 = getelementptr inbounds double, ptr %43, i64 %45
  %47 = load double, ptr %46, align 8, !tbaa !53
  %48 = load ptr, ptr %8, align 8, !tbaa !72
  %49 = load i32, ptr %13, align 4, !tbaa !4
  %50 = add nsw i32 %49, 1
  %51 = sext i32 %50 to i64
  %52 = getelementptr inbounds double, ptr %48, i64 %51
  %53 = load double, ptr %52, align 8, !tbaa !53
  %54 = load ptr, ptr %8, align 8, !tbaa !72
  %55 = load i32, ptr %13, align 4, !tbaa !4
  %56 = sext i32 %55 to i64
  %57 = getelementptr inbounds double, ptr %54, i64 %56
  %58 = load double, ptr %57, align 8, !tbaa !53
  %59 = fsub double %53, %58
  %60 = call double @llvm.fmuladd.f64(double 5.000000e-01, double %59, double %47)
  %61 = load double, ptr %15, align 8, !tbaa !53
  %62 = call double @llvm.fmuladd.f64(double %42, double %60, double %61)
  store double %62, ptr %15, align 8, !tbaa !53
  br label %63

63:                                               ; preds = %41
  %64 = load i32, ptr %13, align 4, !tbaa !4
  %65 = add nsw i32 %64, 1
  store i32 %65, ptr %13, align 4, !tbaa !4
  br label %37, !llvm.loop !181

66:                                               ; preds = %37
  %67 = load double, ptr %15, align 8, !tbaa !53
  %68 = load ptr, ptr %7, align 8, !tbaa !72
  %69 = load i32, ptr %14, align 4, !tbaa !4
  %70 = sext i32 %69 to i64
  %71 = getelementptr inbounds double, ptr %68, i64 %70
  store double %67, ptr %71, align 8, !tbaa !53
  br label %72

72:                                               ; preds = %66
  %73 = load i32, ptr %14, align 4, !tbaa !4
  %74 = add nsw i32 %73, 1
  store i32 %74, ptr %14, align 4, !tbaa !4
  br label %29, !llvm.loop !182

75:                                               ; preds = %29
  call void @llvm.lifetime.end.p0(i64 8, ptr %15) #17
  call void @llvm.lifetime.end.p0(i64 4, ptr %14) #17
  call void @llvm.lifetime.end.p0(i64 4, ptr %13) #17
  ret void
}