; Function Attrs: cold mustprogress nofree nounwind uwtable
define internal fastcc void @_ZL11p_integratePdPKdidii(ptr noundef writeonly captures(none) %0, ptr noundef readonly captures(none) %1, i32 noundef %2, double noundef %3, i32 noundef %4, i32 noundef %5) unnamed_addr #13 {
  %7 = icmp slt i32 %2, 3
  br i1 %7, label %8, label %11

8:                                                ; preds = %6
  %9 = load ptr, ptr @stderr, align 8, !tbaa !31
  %10 = tail call i64 @fwrite(ptr nonnull @.str.64, i64 63, i64 1, ptr %9) #21
  br label %11

11:                                               ; preds = %8, %6
  %12 = load ptr, ptr @stderr, align 8, !tbaa !31
  %13 = sub nsw i32 %2, %5
  %14 = tail call i32 (ptr, ptr, ...) @fprintf(ptr noundef %12, ptr noundef nonnull @.str.65, i32 noundef %4, i32 noundef %13) #25
  %15 = icmp slt i32 %4, %13
  br i1 %15, label %.preheader.preheader, label %._crit_edge28

.preheader.preheader:                             ; preds = %11
  %16 = sext i32 %4 to i64
  %17 = sext i32 %13 to i64
  %.phi.trans.insert = getelementptr inbounds double, ptr %1, i64 %16
  br label %.preheader

.preheader:                                       ; preds = %.preheader.preheader, %._crit_edge
  %indvars.iv30 = phi i64 [ %16, %.preheader.preheader ], [ %indvars.iv.next31, %._crit_edge ]
  %18 = icmp sgt i64 %indvars.iv30, %16
  br i1 %18, label %.lr.ph.preheader, label %._crit_edge

.lr.ph.preheader:                                 ; preds = %.preheader
  %.pre = load double, ptr %.phi.trans.insert, align 8, !tbaa !81
  br label %.lr.ph

.lr.ph:                                           ; preds = %.lr.ph.preheader, %.lr.ph
  %19 = phi double [ %.pre, %.lr.ph.preheader ], [ %21, %.lr.ph ]
  %indvars.iv = phi i64 [ %16, %.lr.ph.preheader ], [ %indvars.iv.next, %.lr.ph ]
  %.026 = phi double [ 0.000000e+00, %.lr.ph.preheader ], [ %24, %.lr.ph ]
  %indvars.iv.next = add nsw i64 %indvars.iv, 1
  %20 = getelementptr inbounds double, ptr %1, i64 %indvars.iv.next
  %21 = load double, ptr %20, align 8, !tbaa !81
  %22 = fsub double %21, %19
  %23 = tail call double @llvm.fmuladd.f64(double %22, double 5.000000e-01, double %19)
  %24 = tail call double @llvm.fmuladd.f64(double %3, double %23, double %.026)
  %exitcond.not = icmp eq i64 %indvars.iv.next, %indvars.iv30
  br i1 %exitcond.not, label %._crit_edge, label %.lr.ph, !llvm.loop !108

._crit_edge:                                      ; preds = %.lr.ph, %.preheader
  %.0.lcssa = phi double [ 0.000000e+00, %.preheader ], [ %24, %.lr.ph ]
  %25 = getelementptr inbounds double, ptr %0, i64 %indvars.iv30
  store double %.0.lcssa, ptr %25, align 8, !tbaa !81
  %indvars.iv.next31 = add nsw i64 %indvars.iv30, 1
  %26 = icmp slt i64 %indvars.iv.next31, %17
  br i1 %26, label %.preheader, label %._crit_edge28, !llvm.loop !109

._crit_edge28:                                    ; preds = %._crit_edge, %11
  ret void
}